(lp0
ccopy_reg
_reconstructor
p1
(c__main__
array
p2
c__builtin__
list
p3
(lp4
(lp5
I3
aI2
aI3
aI3
aI2
aI1
aI3
aa(lp6
I3
aI-1
aI2
aI-1
aI-1
aI-1
aI2
aa(lp7
I3
aI-1
aI3
aI2
aI2
aI2
aI2
aa(lp8
I-1
aI-1
aI-1
aI-1
aI-1
aI2
aI2
aa(lp9
I1
aI2
aI-1
aI-1
aI2
aI-1
aI2
aa(lp10
I-1
aI2
aI-1
aI-1
aI0
aI2
aI2
aa(lp11
I-1
aI3
aI-1
aI3
aI3
aI3
aI-1
aatp12
Rp13
ag1
(g2
g3
(lp14
(lp15
I-1
aI-1
aI3
aI3
aI3
aI2
aI3
aa(lp16
I3
aI1
aI2
aI0
aI-1
aI-1
aI3
aa(lp17
I1
aI2
aI2
aI-1
aI-1
aI2
aI2
aa(lp18
I-1
aI-1
aI-1
aI-1
aI2
aI-1
aI-1
aa(lp19
I-1
aI-1
aI1
aI-1
aI3
aI2
aI2
aa(lp20
I2
aI-1
aI2
aI-1
aI-1
aI-1
aI2
aa(lp21
I-1
aI-1
aI3
aI2
aI3
aI2
aI2
aatp22
Rp23
ag1
(g2
g3
(lp24
(lp25
I3
aI-1
aI-1
aI3
aI1
aI2
aI-1
aa(lp26
I-1
aI-1
aI-1
aI1
aI-1
aI-1
aI-1
aa(lp27
I2
aI-1
aI-1
aI2
aI2
aI1
aI-1
aa(lp28
I-1
aI3
aI0
aI2
aI2
aI-1
aI-1
aa(lp29
I2
aI-1
aI2
aI-1
aI-1
aI-1
aI-1
aa(lp30
I3
aI-1
aI-1
aI-1
aI2
aI-1
aI-1
aa(lp31
I-1
aI2
aI1
aI2
aI-1
aI-1
aI-1
aatp32
Rp33
ag1
(g2
g3
(lp34
(lp35
I2
aI-1
aI-1
aI1
aI2
aI2
aI2
aa(lp36
I-1
aI2
aI-1
aI2
aI-1
aI-1
aI-1
aa(lp37
I-1
aI2
aI3
aI0
aI-1
aI-1
aI-1
aa(lp38
I-1
aI2
aI-1
aI-1
aI-1
aI-1
aI-1
aa(lp39
I1
aI3
aI-1
aI-1
aI2
aI-1
aI2
aa(lp40
I2
aI2
aI1
aI3
aI-1
aI-1
aI2
aa(lp41
I-1
aI2
aI-1
aI-1
aI2
aI3
aI-1
aatp42
Rp43
ag1
(g2
g3
(lp44
(lp45
I-1
aI-1
aI-1
aI-1
aI2
aI2
aI2
aa(lp46
I2
aI-1
aI-1
aI2
aI-1
aI-1
aI-1
aa(lp47
I2
aI2
aI-1
aI2
aI1
aI1
aI-1
aa(lp48
I1
aI2
aI-1
aI3
aI2
aI-1
aI2
aa(lp49
I-1
aI3
aI-1
aI3
aI0
aI-1
aI2
aa(lp50
I-1
aI2
aI2
aI3
aI2
aI-1
aI-1
aa(lp51
I2
aI1
aI-1
aI2
aI-1
aI-1
aI3
aatp52
Rp53
ag1
(g2
g3
(lp54
(lp55
I-1
aI2
aI-1
aI3
aI3
aI3
aI-1
aa(lp56
I-1
aI3
aI2
aI2
aI-1
aI0
aI3
aa(lp57
I-1
aI-1
aI-1
aI1
aI-1
aI-1
aI3
aa(lp58
I-1
aI-1
aI-1
aI-1
aI-1
aI-1
aI2
aa(lp59
I-1
aI2
aI1
aI-1
aI-1
aI-1
aI3
aa(lp60
I-1
aI-1
aI1
aI-1
aI-1
aI-1
aI2
aa(lp61
I-1
aI-1
aI2
aI3
aI1
aI-1
aI-1
aatp62
Rp63
ag1
(g2
g3
(lp64
(lp65
I-1
aI1
aI-1
aI-1
aI-1
aI-1
aI3
aa(lp66
I-1
aI-1
aI-1
aI-1
aI-1
aI-1
aI2
aa(lp67
I3
aI-1
aI3
aI-1
aI-1
aI-1
aI3
aa(lp68
I3
aI-1
aI2
aI1
aI3
aI0
aI3
aa(lp69
I2
aI-1
aI-1
aI-1
aI-1
aI-1
aI3
aa(lp70
I3
aI3
aI3
aI3
aI2
aI-1
aI2
aa(lp71
I-1
aI-1
aI-1
aI-1
aI-1
aI3
aI3
aatp72
Rp73
ag1
(g2
g3
(lp74
(lp75
I-1
aI2
aI3
aI1
aI-1
aI-1
aI-1
aa(lp76
I-1
aI-1
aI-1
aI-1
aI3
aI-1
aI2
aa(lp77
I2
aI2
aI2
aI0
aI3
aI2
aI2
aa(lp78
I-1
aI2
aI-1
aI2
aI3
aI2
aI2
aa(lp79
I3
aI1
aI-1
aI-1
aI2
aI2
aI-1
aa(lp80
I3
aI2
aI-1
aI-1
aI3
aI-1
aI-1
aa(lp81
I-1
aI-1
aI-1
aI-1
aI3
aI-1
aI3
aatp82
Rp83
a(lp84
(lp85
I3
aI3
aI2
aI3
aI1
aI-1
aI3
aa(lp86
I2
aI-1
aI2
aI-1
aI2
aI2
aI-1
aa(lp87
I3
aI-1
aI-1
aI-1
aI-1
aI2
aI2
aa(lp88
I3
aI-1
aI1
aI-1
aI2
aI-1
aI1
aa(lp89
I2
aI3
aI-1
aI-1
aI2
aI-1
aI-1
aa(lp90
I2
aI2
aI0
aI-1
aI-1
aI-1
aI1
aa(lp91
I-1
aI3
aI3
aI3
aI3
aI-1
aI-1
aaa.